target datalayout = "e-m:e-p270:32:32-p271:32:32-p272:64:64-i64:64-i128:128-f80:128-n8:16:32:64-S128"
target triple = "x86_64-pc-linux-gnu"

%class.anon = type { i8 }

; Function Attrs: inlinehint mustprogress nounwind uwtable
define internal void @"_ZZN5boost7process2v23ext3cmdEiRNS_6system10error_codeEENK3$_0clEiPPc"(ptr noundef nonnull align 1 dereferenceable(1) %0, i32 noundef %1, ptr noundef %2) #1 align 2 {
  %4 = alloca ptr, align 8
  %5 = alloca i32, align 4
  %6 = alloca ptr, align 8
  store ptr %0, ptr %4, align 8, !tbaa !7
  store i32 %1, ptr %5, align 4, !tbaa !3
  store ptr %2, ptr %6, align 8, !tbaa !7
  %7 = load ptr, ptr %6, align 8, !tbaa !7
  %8 = icmp eq ptr %7, null
  br i1 %8, label %10, label %9

9:                                                ; preds = %3
  call void @_ZdaPv(ptr noundef %7) #21
  br label %10

10:                                               ; preds = %9, %3
  ret void
}

; Function Attrs: inlinehint mustprogress uwtable
define internal void @"_ZZN5boost7process2v23ext3cmdEiRNS_6system10error_codeEEN3$_08__invokeEiPPc"(i32 noundef %0, ptr noundef %1) #0 align 2 {
  %3 = alloca i32, align 4
  %4 = alloca ptr, align 8
  %5 = alloca %class.anon, align 1
  store i32 %0, ptr %3, align 4, !tbaa !3
  store ptr %1, ptr %4, align 8, !tbaa !7
  %6 = load i32, ptr %3, align 4, !tbaa !3
  %7 = load ptr, ptr %4, align 8, !tbaa !7
  call void @"_ZZN5boost7process2v23ext3cmdEiRNS_6system10error_codeEENK3$_0clEiPPc"(ptr noundef nonnull align 1 dereferenceable(1) %5, i32 noundef %6, ptr noundef %7)
  ret void
}