; Function Attrs: inlinehint mustprogress nounwind uwtable
define internal void @"_ZZN5boost7process2v23ext3cmdEiRNS_6system10error_codeEEN3$_08__invokeEiPPc"(i32 %0, ptr noundef %1) #0 align 2 {
  %3 = icmp eq ptr %1, null
  br i1 %3, label %"_ZZN5boost7process2v23ext3cmdEiRNS_6system10error_codeEENK3$_0clEiPPc.exit", label %4

4:                                                ; preds = %2
  tail call void @_ZdaPv(ptr noundef nonnull %1) #24
  br label %"_ZZN5boost7process2v23ext3cmdEiRNS_6system10error_codeEENK3$_0clEiPPc.exit"

"_ZZN5boost7process2v23ext3cmdEiRNS_6system10error_codeEENK3$_0clEiPPc.exit": ; preds = %2, %4
  ret void
}